; Function Attrs: mustprogress nofree norecurse nosync nounwind willreturn memory(read, argmem: readwrite, inaccessiblemem: none) uwtable
define void @_ZN3nix14UDSRemoteStoreC2ERKSt3mapINSt7__cxx1112basic_stringIcSt11char_traitsIcESaIcEEES7_St4lessIS7_ESaISt4pairIKS7_S7_EEE(ptr nocapture noundef nonnull align 8 dereferenceable(48) %0, ptr nocapture noundef readonly %1, ptr nocapture noundef nonnull readnone align 8 dereferenceable(48) %2) unnamed_addr #7 align 2 {
  %4 = load ptr, ptr %1, align 8
  store ptr %4, ptr %0, align 8
  %5 = getelementptr inbounds i8, ptr %1, i64 8
  %6 = load ptr, ptr %5, align 8
  %7 = getelementptr i8, ptr %4, i64 -72
  %8 = load i64, ptr %7, align 8
  %9 = getelementptr inbounds i8, ptr %0, i64 %8
  store ptr %6, ptr %9, align 8
  %10 = getelementptr inbounds i8, ptr %1, i64 16
  %11 = load ptr, ptr %10, align 8
  %12 = load ptr, ptr %0, align 8
  %13 = getelementptr i8, ptr %12, i64 -24
  %14 = load i64, ptr %13, align 8
  %15 = getelementptr inbounds i8, ptr %0, i64 %14
  store ptr %11, ptr %15, align 8
  %16 = getelementptr inbounds i8, ptr %1, i64 24
  %17 = load ptr, ptr %16, align 8
  %18 = load ptr, ptr %0, align 8
  %19 = getelementptr i8, ptr %18, i64 -32
  %20 = load i64, ptr %19, align 8
  %21 = getelementptr inbounds i8, ptr %0, i64 %20
  store ptr %17, ptr %21, align 8
  %22 = getelementptr inbounds i8, ptr %1, i64 32
  %23 = load ptr, ptr %22, align 8
  %24 = load ptr, ptr %0, align 8
  %25 = getelementptr i8, ptr %24, i64 -40
  %26 = load i64, ptr %25, align 8
  %27 = getelementptr inbounds i8, ptr %0, i64 %26
  store ptr %23, ptr %27, align 8
  %28 = getelementptr inbounds i8, ptr %1, i64 40
  %29 = load ptr, ptr %28, align 8
  %30 = load ptr, ptr %0, align 8
  %31 = getelementptr i8, ptr %30, i64 -80
  %32 = load i64, ptr %31, align 8
  %33 = getelementptr inbounds i8, ptr %0, i64 %32
  store ptr %29, ptr %33, align 8
  %34 = getelementptr inbounds i8, ptr %1, i64 48
  %35 = load ptr, ptr %34, align 8
  %36 = load ptr, ptr %0, align 8
  %37 = getelementptr i8, ptr %36, i64 -88
  %38 = load i64, ptr %37, align 8
  %39 = getelementptr inbounds i8, ptr %0, i64 %38
  store ptr %35, ptr %39, align 8
  %40 = getelementptr inbounds i8, ptr %1, i64 56
  %41 = load ptr, ptr %40, align 8
  %42 = load ptr, ptr %0, align 8
  %43 = getelementptr i8, ptr %42, i64 -96
  %44 = load i64, ptr %43, align 8
  %45 = getelementptr inbounds i8, ptr %0, i64 %44
  store ptr %41, ptr %45, align 8
  %46 = getelementptr inbounds i8, ptr %1, i64 64
  %47 = load ptr, ptr %46, align 8
  %48 = load ptr, ptr %0, align 8
  %49 = getelementptr i8, ptr %48, i64 -104
  %50 = load i64, ptr %49, align 8
  %51 = getelementptr inbounds i8, ptr %0, i64 %50
  store ptr %47, ptr %51, align 8
  %52 = getelementptr inbounds i8, ptr %1, i64 72
  %53 = load ptr, ptr %52, align 8
  %54 = load ptr, ptr %0, align 8
  %55 = getelementptr i8, ptr %54, i64 -112
  %56 = load i64, ptr %55, align 8
  %57 = getelementptr inbounds i8, ptr %0, i64 %56
  store ptr %53, ptr %57, align 8
  %58 = getelementptr inbounds i8, ptr %1, i64 80
  %59 = load ptr, ptr %58, align 8
  %60 = load ptr, ptr %0, align 8
  %61 = getelementptr i8, ptr %60, i64 -120
  %62 = load i64, ptr %61, align 8
  %63 = getelementptr inbounds i8, ptr %0, i64 %62
  store ptr %59, ptr %63, align 8
  %64 = getelementptr inbounds i8, ptr %0, i64 40
  store i8 0, ptr %64, align 8
  ret void
}